target datalayout = "e-m:e-p270:32:32-p271:32:32-p272:64:64-i64:64-i128:128-f80:128-n8:16:32:64-S128"
target triple = "x86_64-pc-linux-gnu"

%struct.raxStack = type { ptr, i64, i64, [32 x ptr], i32 }
%struct.raxIterator = type { i32, ptr, ptr, ptr, i64, i64, [128 x i8], ptr, %struct.raxStack, ptr }

; Function Attrs: inlinehint nounwind uwtable
define internal void @raxStackInit(ptr noundef %0) #8 {
  %2 = alloca ptr, align 8
  store ptr %0, ptr %2, align 8, !tbaa !29
  %3 = load ptr, ptr %2, align 8, !tbaa !29
  %4 = getelementptr inbounds nuw %struct.raxStack, ptr %3, i32 0, i32 3
  %5 = getelementptr inbounds [32 x ptr], ptr %4, i64 0, i64 0
  %6 = load ptr, ptr %2, align 8, !tbaa !29
  %7 = getelementptr inbounds nuw %struct.raxStack, ptr %6, i32 0, i32 0
  store ptr %5, ptr %7, align 8, !tbaa !39
  %8 = load ptr, ptr %2, align 8, !tbaa !29
  %9 = getelementptr inbounds nuw %struct.raxStack, ptr %8, i32 0, i32 1
  store i64 0, ptr %9, align 8, !tbaa !40
  %10 = load ptr, ptr %2, align 8, !tbaa !29
  %11 = getelementptr inbounds nuw %struct.raxStack, ptr %10, i32 0, i32 2
  store i64 32, ptr %11, align 8, !tbaa !41
  %12 = load ptr, ptr %2, align 8, !tbaa !29
  %13 = getelementptr inbounds nuw %struct.raxStack, ptr %12, i32 0, i32 4
  store i32 0, ptr %13, align 8, !tbaa !35
  ret void
}

; Function Attrs: nounwind uwtable
define dso_local void @raxStart(ptr noundef %0, ptr noundef %1) #0 {
  %3 = alloca ptr, align 8
  %4 = alloca ptr, align 8
  store ptr %0, ptr %3, align 8, !tbaa !44
  store ptr %1, ptr %4, align 8, !tbaa !14
  %5 = load ptr, ptr %3, align 8, !tbaa !44
  %6 = getelementptr inbounds nuw %struct.raxIterator, ptr %5, i32 0, i32 0
  store i32 2, ptr %6, align 8, !tbaa !46
  %7 = load ptr, ptr %4, align 8, !tbaa !14
  %8 = load ptr, ptr %3, align 8, !tbaa !44
  %9 = getelementptr inbounds nuw %struct.raxIterator, ptr %8, i32 0, i32 1
  store ptr %7, ptr %9, align 8, !tbaa !48
  %10 = load ptr, ptr %3, align 8, !tbaa !44
  %11 = getelementptr inbounds nuw %struct.raxIterator, ptr %10, i32 0, i32 4
  store i64 0, ptr %11, align 8, !tbaa !49
  %12 = load ptr, ptr %3, align 8, !tbaa !44
  %13 = getelementptr inbounds nuw %struct.raxIterator, ptr %12, i32 0, i32 6
  %14 = getelementptr inbounds [128 x i8], ptr %13, i64 0, i64 0
  %15 = load ptr, ptr %3, align 8, !tbaa !44
  %16 = getelementptr inbounds nuw %struct.raxIterator, ptr %15, i32 0, i32 2
  store ptr %14, ptr %16, align 8, !tbaa !50
  %17 = load ptr, ptr %3, align 8, !tbaa !44
  %18 = getelementptr inbounds nuw %struct.raxIterator, ptr %17, i32 0, i32 5
  store i64 128, ptr %18, align 8, !tbaa !51
  %19 = load ptr, ptr %3, align 8, !tbaa !44
  %20 = getelementptr inbounds nuw %struct.raxIterator, ptr %19, i32 0, i32 3
  store ptr null, ptr %20, align 8, !tbaa !52
  %21 = load ptr, ptr %3, align 8, !tbaa !44
  %22 = getelementptr inbounds nuw %struct.raxIterator, ptr %21, i32 0, i32 9
  store ptr null, ptr %22, align 8, !tbaa !53
  %23 = load ptr, ptr %3, align 8, !tbaa !44
  %24 = getelementptr inbounds nuw %struct.raxIterator, ptr %23, i32 0, i32 8
  call void @raxStackInit(ptr noundef %24)
  ret void
}