; Function Attrs: mustprogress nofree norecurse nosync nounwind willreturn memory(argmem: write) uwtable
define dso_local void @raxStart(ptr noundef initializes((0, 4), (8, 16), (32, 40)) %0, ptr noundef %1) local_unnamed_addr #14 {
  store i32 2, ptr %0, align 8, !tbaa !32
  %3 = getelementptr inbounds nuw i8, ptr %0, i64 8
  store ptr %1, ptr %3, align 8, !tbaa !36
  %4 = getelementptr inbounds nuw i8, ptr %0, i64 32
  store i64 0, ptr %4, align 8, !tbaa !37
  %5 = getelementptr inbounds nuw i8, ptr %0, i64 48
  %6 = getelementptr inbounds nuw i8, ptr %0, i64 16
  store ptr %5, ptr %6, align 8, !tbaa !38
  %7 = getelementptr inbounds nuw i8, ptr %0, i64 40
  store i64 128, ptr %7, align 8, !tbaa !39
  %8 = getelementptr inbounds nuw i8, ptr %0, i64 24
  store ptr null, ptr %8, align 8, !tbaa !40
  %9 = getelementptr inbounds nuw i8, ptr %0, i64 472
  store ptr null, ptr %9, align 8, !tbaa !41
  %10 = getelementptr inbounds nuw i8, ptr %0, i64 184
  %11 = getelementptr inbounds nuw i8, ptr %0, i64 208
  store ptr %11, ptr %10, align 8, !tbaa !27
  %12 = getelementptr inbounds nuw i8, ptr %0, i64 192
  store i64 0, ptr %12, align 8, !tbaa !24
  %13 = getelementptr inbounds nuw i8, ptr %0, i64 200
  store i64 32, ptr %13, align 8, !tbaa !26
  %14 = getelementptr inbounds nuw i8, ptr %0, i64 464
  store i32 0, ptr %14, align 8, !tbaa !28
  ret void
}